; Function Attrs: mustprogress nounwind uwtable
define hidden noundef nonnull ptr @_ZN6hermes9IRBuilder14createVariableEPNS_9ScopeDescENS_18JavaScriptDeclKindEN4llvh9StringRefE(ptr noundef nonnull readonly align 8 captures(none) dereferenceable(40) %this, ptr noundef %Parent, i8 noundef zeroext %declKind, ptr %Name.coerce0, i64 %Name.coerce1) local_unnamed_addr #0 align 2 {
entry:
  %0 = load ptr, ptr %this, align 8
  %Ctx.i.i = getelementptr inbounds nuw i8, ptr %0, i64 40
  %1 = load ptr, ptr %Ctx.i.i, align 8
  %stringTable_.i.i = getelementptr inbounds nuw i8, ptr %1, i64 72
  %call.i.i.i = tail call noundef ptr @_ZN6hermes11StringTable9getStringEN4llvh9StringRefE(ptr noundef nonnull align 8 dereferenceable(32) %stringTable_.i.i, ptr %Name.coerce0, i64 %Name.coerce1)
  %call.i = tail call noalias noundef nonnull dereferenceable(72) ptr @_Znwm(i64 noundef 72) #14
  tail call void @_ZN6hermes8VariableC2ENS_9ValueKindEPNS_9ScopeDescENS_18JavaScriptDeclKindENS_10IdentifierE(ptr noundef nonnull align 8 dereferenceable(65) %call.i, i8 noundef zeroext 124, ptr noundef %Parent, i8 noundef zeroext %declKind, ptr %call.i.i.i) #15
  ret ptr %call.i
}